target datalayout = "e-m:e-p270:32:32-p271:32:32-p272:64:64-i64:64-i128:128-f80:128-n8:16:32:64-S128"
target triple = "x86_64-pc-linux-gnu"

%"class.cmUVJobServerClient::Impl" = type { ptr, ptr, %"struct.cm::uv_idle_ptr", %"class.std::function", %"class.std::function.0", i32, i32 }
%"struct.cm::uv_idle_ptr" = type { %"class.cm::uv_handle_ptr_" }
%"class.cm::uv_handle_ptr_" = type { %"class.cm::uv_handle_ptr_base_" }
%"class.cm::uv_handle_ptr_base_" = type { %"class.std::shared_ptr" }
%"class.std::shared_ptr" = type { %"class.std::__shared_ptr" }
%"class.std::__shared_ptr" = type { ptr, %"class.std::__shared_count" }
%"class.std::__shared_count" = type { ptr }
%"class.std::function" = type { %"class.std::_Function_base", ptr }
%"class.std::_Function_base" = type { %"union.std::_Any_data", ptr }
%"union.std::_Any_data" = type { %"union.std::_Nocopy_types" }
%"union.std::_Nocopy_types" = type { { i64, i64 } }
%"class.std::function.0" = type { %"class.std::_Function_base", ptr }
%class.anon = type { i8 }

; Function Attrs: mustprogress nounwind uwtable
define internal noundef ptr @"_ZZN19cmUVJobServerClient4Impl20RequestImplicitTokenEvENK3$_0cvPFvP9uv_idle_sEEv"(ptr noundef nonnull align 1 dereferenceable(1) %0) #5 align 2 {
  %2 = alloca ptr, align 8
  store ptr %0, ptr %2, align 8
  ret ptr @"_ZZN19cmUVJobServerClient4Impl20RequestImplicitTokenEvEN3$_08__invokeEP9uv_idle_s"
}

; Function Attrs: mustprogress uwtable
define dso_local void @_ZN19cmUVJobServerClient4Impl20RequestImplicitTokenEv(ptr noundef nonnull align 8 dereferenceable(104) %0) #4 align 2 {
  %2 = alloca ptr, align 8
  %3 = alloca %class.anon, align 1
  store ptr %0, ptr %2, align 8
  %4 = load ptr, ptr %2, align 8
  %5 = getelementptr inbounds %"class.cmUVJobServerClient::Impl", ptr %4, i32 0, i32 2
  %6 = call noundef ptr @"_ZZN19cmUVJobServerClient4Impl20RequestImplicitTokenEvENK3$_0cvPFvP9uv_idle_sEEv"(ptr noundef nonnull align 1 dereferenceable(1) %3) #3
  %7 = call noundef i32 @_ZN2cm11uv_idle_ptr5startEPFvP9uv_idle_sE(ptr noundef nonnull align 8 dereferenceable(16) %5, ptr noundef %6)
  ret void
}

; Function Attrs: mustprogress uwtable
define dso_local void @_ZN19cmUVJobServerClient4Impl19DecrementNeedTokensEv(ptr noundef nonnull align 8 dereferenceable(104) %0) #4 align 2 {
  %2 = alloca ptr, align 8
  store ptr %0, ptr %2, align 8
  %3 = load ptr, ptr %2, align 8
  %4 = getelementptr inbounds %"class.cmUVJobServerClient::Impl", ptr %3, i32 0, i32 6
  %5 = load i32, ptr %4, align 4
  %6 = add i32 %5, -1
  store i32 %6, ptr %4, align 4
  %7 = getelementptr inbounds %"class.cmUVJobServerClient::Impl", ptr %3, i32 0, i32 6
  %8 = load i32, ptr %7, align 4
  %9 = icmp eq i32 %8, 0
  br i1 %9, label %10, label %14

10:                                               ; preds = %1
  %11 = load ptr, ptr %3, align 8
  %12 = getelementptr inbounds ptr, ptr %11, i64 4
  %13 = load ptr, ptr %12, align 8
  call void %13(ptr noundef nonnull align 8 dereferenceable(104) %3)
  br label %14

14:                                               ; preds = %10, %1
  ret void
}

; Function Attrs: mustprogress uwtable
define dso_local void @_ZN19cmUVJobServerClient4Impl20ReleaseImplicitTokenEv(ptr noundef nonnull align 8 dereferenceable(104) %0) #4 align 2 {
  %2 = alloca ptr, align 8
  store ptr %0, ptr %2, align 8
  %3 = load ptr, ptr %2, align 8
  %4 = getelementptr inbounds %"class.cmUVJobServerClient::Impl", ptr %3, i32 0, i32 6
  %5 = load i32, ptr %4, align 4
  %6 = icmp ugt i32 %5, 0
  br i1 %6, label %7, label %8

7:                                                ; preds = %1
  call void @_ZN19cmUVJobServerClient4Impl19DecrementNeedTokensEv(ptr noundef nonnull align 8 dereferenceable(104) %3)
  call void @_ZN19cmUVJobServerClient4Impl20RequestImplicitTokenEv(ptr noundef nonnull align 8 dereferenceable(104) %3)
  br label %8

8:                                                ; preds = %7, %1
  ret void
}

; Function Attrs: noreturn nounwind uwtable
define linkonce_odr hidden void @__clang_call_terminate(ptr noundef %0) #7 comdat {
  %2 = call ptr @__cxa_begin_catch(ptr %0) #3
  call void @_ZSt9terminatev() #13
  unreachable
}

; Function Attrs: mustprogress nounwind uwtable
define linkonce_odr dso_local noundef zeroext i1 @_ZNKSt14_Function_base8_M_emptyEv(ptr noundef nonnull align 8 dereferenceable(24) %0) #5 comdat align 2 {
  %2 = alloca ptr, align 8
  store ptr %0, ptr %2, align 8
  %3 = load ptr, ptr %2, align 8
  %4 = getelementptr inbounds %"class.std::_Function_base", ptr %3, i32 0, i32 1
  %5 = load ptr, ptr %4, align 8
  %6 = icmp ne ptr %5, null
  %7 = xor i1 %6, true
  ret i1 %7
}

; Function Attrs: mustprogress uwtable
define dso_local void @_ZN19cmUVJobServerClient4Impl12ReleaseTokenEv(ptr noundef nonnull align 8 dereferenceable(104) %0) #4 align 2 {
  %2 = alloca ptr, align 8
  store ptr %0, ptr %2, align 8
  %3 = load ptr, ptr %2, align 8
  %4 = getelementptr inbounds %"class.cmUVJobServerClient::Impl", ptr %3, i32 0, i32 5
  %5 = load i32, ptr %4, align 8
  %6 = add i32 %5, -1
  store i32 %6, ptr %4, align 8
  %7 = getelementptr inbounds %"class.cmUVJobServerClient::Impl", ptr %3, i32 0, i32 5
  %8 = load i32, ptr %7, align 8
  %9 = icmp eq i32 %8, 0
  br i1 %9, label %10, label %11

10:                                               ; preds = %1
  call void @_ZN19cmUVJobServerClient4Impl20ReleaseImplicitTokenEv(ptr noundef nonnull align 8 dereferenceable(104) %3)
  br label %15

11:                                               ; preds = %1
  %12 = load ptr, ptr %3, align 8
  %13 = getelementptr inbounds ptr, ptr %12, i64 2
  %14 = load ptr, ptr %13, align 8
  call void %14(ptr noundef nonnull align 8 dereferenceable(104) %3)
  br label %15

15:                                               ; preds = %11, %10
  ret void
}

; Function Attrs: mustprogress uwtable
define linkonce_odr dso_local void @_ZNKSt8functionIFvvEEclEv(ptr noundef nonnull align 8 dereferenceable(32) %0) #4 comdat align 2 {
  %2 = alloca ptr, align 8
  store ptr %0, ptr %2, align 8
  %3 = load ptr, ptr %2, align 8
  %4 = call noundef zeroext i1 @_ZNKSt14_Function_base8_M_emptyEv(ptr noundef nonnull align 8 dereferenceable(24) %3)
  br i1 %4, label %5, label %6

5:                                                ; preds = %1
  call void @_ZSt25__throw_bad_function_callv() #14
  unreachable

6:                                                ; preds = %1
  %7 = getelementptr inbounds %"class.std::function", ptr %3, i32 0, i32 1
  %8 = load ptr, ptr %7, align 8
  %9 = getelementptr inbounds %"class.std::_Function_base", ptr %3, i32 0, i32 0
  call void %8(ptr noundef nonnull align 8 dereferenceable(16) %9)
  ret void
}

; Function Attrs: mustprogress nounwind uwtable
define linkonce_odr dso_local noundef zeroext i1 @_ZNKSt8functionIFvvEEcvbEv(ptr noundef nonnull align 8 dereferenceable(32) %0) #5 comdat align 2 personality ptr @__gxx_personality_v0 {
  %2 = alloca ptr, align 8
  store ptr %0, ptr %2, align 8
  %3 = load ptr, ptr %2, align 8
  %4 = invoke noundef zeroext i1 @_ZNKSt14_Function_base8_M_emptyEv(ptr noundef nonnull align 8 dereferenceable(24) %3)
          to label %5 unwind label %7

5:                                                ; preds = %1
  %6 = xor i1 %4, true
  ret i1 %6

7:                                                ; preds = %1
  %8 = landingpad { ptr, i32 }
          catch ptr null
  %9 = extractvalue { ptr, i32 } %8, 0
  call void @__clang_call_terminate(ptr %9) #13
  unreachable
}

; Function Attrs: mustprogress uwtable
define dso_local void @_ZN19cmUVJobServerClient4Impl9HoldTokenEv(ptr noundef nonnull align 8 dereferenceable(104) %0) #4 align 2 {
  %2 = alloca ptr, align 8
  store ptr %0, ptr %2, align 8
  %3 = load ptr, ptr %2, align 8
  %4 = getelementptr inbounds %"class.cmUVJobServerClient::Impl", ptr %3, i32 0, i32 5
  %5 = load i32, ptr %4, align 8
  %6 = add i32 %5, 1
  store i32 %6, ptr %4, align 8
  %7 = getelementptr inbounds %"class.cmUVJobServerClient::Impl", ptr %3, i32 0, i32 3
  %8 = call noundef zeroext i1 @_ZNKSt8functionIFvvEEcvbEv(ptr noundef nonnull align 8 dereferenceable(32) %7) #3
  br i1 %8, label %9, label %11

9:                                                ; preds = %1
  %10 = getelementptr inbounds %"class.cmUVJobServerClient::Impl", ptr %3, i32 0, i32 3
  call void @_ZNKSt8functionIFvvEEclEv(ptr noundef nonnull align 8 dereferenceable(32) %10)
  br label %12

11:                                               ; preds = %1
  call void @_ZN19cmUVJobServerClient4Impl12ReleaseTokenEv(ptr noundef nonnull align 8 dereferenceable(104) %3)
  br label %12

12:                                               ; preds = %11, %9
  ret void
}