; Function Attrs: mustprogress uwtable
define dso_local void @_ZN19cmUVJobServerClient4Impl9HoldTokenEv(ptr noundef nonnull align 8 dereferenceable(104) %0) local_unnamed_addr #3 align 2 personality ptr @__gxx_personality_v0 {
  %2 = getelementptr inbounds i8, ptr %0, i64 96
  %3 = load i32, ptr %2, align 8
  %4 = add i32 %3, 1
  store i32 %4, ptr %2, align 8
  %5 = getelementptr inbounds i8, ptr %0, i64 48
  %6 = load ptr, ptr %5, align 8
  %.not.i.i.not = icmp eq ptr %6, null
  br i1 %.not.i.i.not, label %10, label %_ZNKSt8functionIFvvEEclEv.exit

_ZNKSt8functionIFvvEEclEv.exit:                   ; preds = %1
  %7 = getelementptr inbounds i8, ptr %0, i64 32
  %8 = getelementptr inbounds i8, ptr %0, i64 56
  %9 = load ptr, ptr %8, align 8
  tail call void %9(ptr noundef nonnull align 8 dereferenceable(16) %7)
  br label %_ZN19cmUVJobServerClient4Impl12ReleaseTokenEv.exit

10:                                               ; preds = %1
  store i32 %3, ptr %2, align 8
  %11 = icmp eq i32 %3, 0
  br i1 %11, label %12, label %24

12:                                               ; preds = %10
  %13 = getelementptr inbounds i8, ptr %0, i64 100
  %14 = load i32, ptr %13, align 4
  %.not.i.i2 = icmp eq i32 %14, 0
  br i1 %.not.i.i2, label %_ZN19cmUVJobServerClient4Impl12ReleaseTokenEv.exit, label %15

15:                                               ; preds = %12
  %16 = add i32 %14, -1
  store i32 %16, ptr %13, align 4
  %17 = icmp eq i32 %16, 0
  br i1 %17, label %18, label %_ZN19cmUVJobServerClient4Impl19DecrementNeedTokensEv.exit.i.i

18:                                               ; preds = %15
  %19 = load ptr, ptr %0, align 8
  %20 = getelementptr inbounds i8, ptr %19, i64 32
  %21 = load ptr, ptr %20, align 8
  tail call void %21(ptr noundef nonnull align 8 dereferenceable(104) %0)
  br label %_ZN19cmUVJobServerClient4Impl19DecrementNeedTokensEv.exit.i.i

_ZN19cmUVJobServerClient4Impl19DecrementNeedTokensEv.exit.i.i: ; preds = %18, %15
  %22 = getelementptr inbounds i8, ptr %0, i64 16
  %23 = tail call noundef i32 @_ZN2cm11uv_idle_ptr5startEPFvP9uv_idle_sE(ptr noundef nonnull align 8 dereferenceable(16) %22, ptr noundef nonnull @"_ZZN19cmUVJobServerClient4Impl20RequestImplicitTokenEvEN3$_08__invokeEP9uv_idle_s")
  br label %_ZN19cmUVJobServerClient4Impl12ReleaseTokenEv.exit

24:                                               ; preds = %10
  %25 = load ptr, ptr %0, align 8
  %26 = getelementptr inbounds i8, ptr %25, i64 16
  %27 = load ptr, ptr %26, align 8
  tail call void %27(ptr noundef nonnull align 8 dereferenceable(104) %0)
  br label %_ZN19cmUVJobServerClient4Impl12ReleaseTokenEv.exit

_ZN19cmUVJobServerClient4Impl12ReleaseTokenEv.exit: ; preds = %24, %_ZN19cmUVJobServerClient4Impl19DecrementNeedTokensEv.exit.i.i, %12, %_ZNKSt8functionIFvvEEclEv.exit
  ret void
}